; Function Attrs: nounwind uwtable
define noalias nonnull ptr @l_Lean_Compiler_LCNF_UnreachableBranches_updateFunDeclParamsAssignment___lambda__1___boxed(ptr noundef %0, ptr noundef %1, ptr noundef %2, ptr noundef %3, ptr noundef %4, ptr noundef %5, ptr noundef %6, ptr noundef %7, ptr noundef %8) #1 {
  %10 = ptrtoint ptr %0 to i64
  %11 = and i64 %10, 1
  %.not = icmp eq i64 %11, 0
  br i1 %.not, label %12, label %lean_dec.exit24

12:                                               ; preds = %9
  %13 = load i32, ptr %0, align 4, !tbaa !4
  %14 = icmp sgt i32 %13, 1
  br i1 %14, label %15, label %17, !prof !13

15:                                               ; preds = %12
  %16 = add nsw i32 %13, -1
  store i32 %16, ptr %0, align 4, !tbaa !4
  br label %lean_dec.exit24

17:                                               ; preds = %12
  %.not.i = icmp eq i32 %13, 0
  br i1 %.not.i, label %lean_dec.exit24, label %18

18:                                               ; preds = %17
  tail call void @lean_dec_ref_cold(ptr noundef nonnull %0) #8
  br label %lean_dec.exit24

lean_dec.exit24:                                  ; preds = %18, %17, %15, %9
  tail call void @lean_inc_heartbeat() #8
  %19 = tail call noalias ptr @mi_malloc_small(i64 noundef 24) #8
  %20 = icmp eq ptr %19, null
  br i1 %20, label %21, label %l_Lean_Compiler_LCNF_UnreachableBranches_updateFunDeclParamsAssignment___lambda__1.exit

21:                                               ; preds = %lean_dec.exit24
  tail call void @lean_internal_panic_out_of_memory() #7
  unreachable

l_Lean_Compiler_LCNF_UnreachableBranches_updateFunDeclParamsAssignment___lambda__1.exit: ; preds = %lean_dec.exit24
  %22 = and i64 %10, 510
  %23 = or disjoint i64 %22, 1
  %24 = inttoptr i64 %23 to ptr
  %25 = getelementptr inbounds nuw i8, ptr %19, i64 4
  store i32 1, ptr %19, align 4, !tbaa !4
  store i32 131096, ptr %25, align 4
  %26 = getelementptr inbounds nuw i8, ptr %19, i64 8
  store ptr %24, ptr %26, align 8, !tbaa !11
  %27 = getelementptr inbounds nuw i8, ptr %19, i64 16
  store ptr %8, ptr %27, align 8, !tbaa !11
  %28 = ptrtoint ptr %7 to i64
  %29 = and i64 %28, 1
  %.not39 = icmp eq i64 %29, 0
  br i1 %.not39, label %30, label %lean_dec.exit23

30:                                               ; preds = %l_Lean_Compiler_LCNF_UnreachableBranches_updateFunDeclParamsAssignment___lambda__1.exit
  %31 = load i32, ptr %7, align 4, !tbaa !4
  %32 = icmp sgt i32 %31, 1
  br i1 %32, label %33, label %35, !prof !13

33:                                               ; preds = %30
  %34 = add nsw i32 %31, -1
  store i32 %34, ptr %7, align 4, !tbaa !4
  br label %lean_dec.exit23

35:                                               ; preds = %30
  %.not.i25 = icmp eq i32 %31, 0
  br i1 %.not.i25, label %lean_dec.exit23, label %36

36:                                               ; preds = %35
  tail call void @lean_dec_ref_cold(ptr noundef nonnull %7) #8
  br label %lean_dec.exit23

lean_dec.exit23:                                  ; preds = %36, %35, %33, %l_Lean_Compiler_LCNF_UnreachableBranches_updateFunDeclParamsAssignment___lambda__1.exit
  %37 = ptrtoint ptr %6 to i64
  %38 = and i64 %37, 1
  %.not40 = icmp eq i64 %38, 0
  br i1 %.not40, label %39, label %lean_dec.exit22

39:                                               ; preds = %lean_dec.exit23
  %40 = load i32, ptr %6, align 4, !tbaa !4
  %41 = icmp sgt i32 %40, 1
  br i1 %41, label %42, label %44, !prof !13

42:                                               ; preds = %39
  %43 = add nsw i32 %40, -1
  store i32 %43, ptr %6, align 4, !tbaa !4
  br label %lean_dec.exit22

44:                                               ; preds = %39
  %.not.i27 = icmp eq i32 %40, 0
  br i1 %.not.i27, label %lean_dec.exit22, label %45

45:                                               ; preds = %44
  tail call void @lean_dec_ref_cold(ptr noundef nonnull %6) #8
  br label %lean_dec.exit22

lean_dec.exit22:                                  ; preds = %45, %44, %42, %lean_dec.exit23
  %46 = ptrtoint ptr %5 to i64
  %47 = and i64 %46, 1
  %.not41 = icmp eq i64 %47, 0
  br i1 %.not41, label %48, label %lean_dec.exit21

48:                                               ; preds = %lean_dec.exit22
  %49 = load i32, ptr %5, align 4, !tbaa !4
  %50 = icmp sgt i32 %49, 1
  br i1 %50, label %51, label %53, !prof !13

51:                                               ; preds = %48
  %52 = add nsw i32 %49, -1
  store i32 %52, ptr %5, align 4, !tbaa !4
  br label %lean_dec.exit21

53:                                               ; preds = %48
  %.not.i29 = icmp eq i32 %49, 0
  br i1 %.not.i29, label %lean_dec.exit21, label %54

54:                                               ; preds = %53
  tail call void @lean_dec_ref_cold(ptr noundef nonnull %5) #8
  br label %lean_dec.exit21

lean_dec.exit21:                                  ; preds = %54, %53, %51, %lean_dec.exit22
  %55 = ptrtoint ptr %4 to i64
  %56 = and i64 %55, 1
  %.not42 = icmp eq i64 %56, 0
  br i1 %.not42, label %57, label %lean_dec.exit20

57:                                               ; preds = %lean_dec.exit21
  %58 = load i32, ptr %4, align 4, !tbaa !4
  %59 = icmp sgt i32 %58, 1
  br i1 %59, label %60, label %62, !prof !13

60:                                               ; preds = %57
  %61 = add nsw i32 %58, -1
  store i32 %61, ptr %4, align 4, !tbaa !4
  br label %lean_dec.exit20

62:                                               ; preds = %57
  %.not.i31 = icmp eq i32 %58, 0
  br i1 %.not.i31, label %lean_dec.exit20, label %63

63:                                               ; preds = %62
  tail call void @lean_dec_ref_cold(ptr noundef nonnull %4) #8
  br label %lean_dec.exit20

lean_dec.exit20:                                  ; preds = %63, %62, %60, %lean_dec.exit21
  %64 = ptrtoint ptr %3 to i64
  %65 = and i64 %64, 1
  %.not43 = icmp eq i64 %65, 0
  br i1 %.not43, label %66, label %lean_dec.exit19

66:                                               ; preds = %lean_dec.exit20
  %67 = load i32, ptr %3, align 4, !tbaa !4
  %68 = icmp sgt i32 %67, 1
  br i1 %68, label %69, label %71, !prof !13

69:                                               ; preds = %66
  %70 = add nsw i32 %67, -1
  store i32 %70, ptr %3, align 4, !tbaa !4
  br label %lean_dec.exit19

71:                                               ; preds = %66
  %.not.i33 = icmp eq i32 %67, 0
  br i1 %.not.i33, label %lean_dec.exit19, label %72

72:                                               ; preds = %71
  tail call void @lean_dec_ref_cold(ptr noundef nonnull %3) #8
  br label %lean_dec.exit19

lean_dec.exit19:                                  ; preds = %72, %71, %69, %lean_dec.exit20
  %73 = ptrtoint ptr %2 to i64
  %74 = and i64 %73, 1
  %.not44 = icmp eq i64 %74, 0
  br i1 %.not44, label %75, label %lean_dec.exit18

75:                                               ; preds = %lean_dec.exit19
  %76 = load i32, ptr %2, align 4, !tbaa !4
  %77 = icmp sgt i32 %76, 1
  br i1 %77, label %78, label %80, !prof !13

78:                                               ; preds = %75
  %79 = add nsw i32 %76, -1
  store i32 %79, ptr %2, align 4, !tbaa !4
  br label %lean_dec.exit18

80:                                               ; preds = %75
  %.not.i35 = icmp eq i32 %76, 0
  br i1 %.not.i35, label %lean_dec.exit18, label %81

81:                                               ; preds = %80
  tail call void @lean_dec_ref_cold(ptr noundef nonnull %2) #8
  br label %lean_dec.exit18

lean_dec.exit18:                                  ; preds = %81, %80, %78, %lean_dec.exit19
  %82 = ptrtoint ptr %1 to i64
  %83 = and i64 %82, 1
  %.not45 = icmp eq i64 %83, 0
  br i1 %.not45, label %84, label %lean_dec.exit

84:                                               ; preds = %lean_dec.exit18
  %85 = load i32, ptr %1, align 4, !tbaa !4
  %86 = icmp sgt i32 %85, 1
  br i1 %86, label %87, label %89, !prof !13

87:                                               ; preds = %84
  %88 = add nsw i32 %85, -1
  store i32 %88, ptr %1, align 4, !tbaa !4
  br label %lean_dec.exit

89:                                               ; preds = %84
  %.not.i37 = icmp eq i32 %85, 0
  br i1 %.not.i37, label %lean_dec.exit, label %90

90:                                               ; preds = %89
  tail call void @lean_dec_ref_cold(ptr noundef nonnull %1) #8
  br label %lean_dec.exit

lean_dec.exit:                                    ; preds = %90, %89, %87, %lean_dec.exit18
  ret ptr %19
}